target datalayout = "e-m:e-p270:32:32-p271:32:32-p272:64:64-i64:64-i128:128-f80:128-n8:16:32:64-S128"
target triple = "x86_64-pc-linux-gnu"

%struct.TclStubs = type { i32, ptr, ptr, ptr, ptr, ptr, ptr, ptr, ptr, ptr, ptr, ptr, ptr, ptr, ptr, ptr, ptr, ptr, ptr, ptr, ptr, ptr, ptr, ptr, ptr, ptr, ptr, ptr, ptr, ptr, ptr, ptr, ptr, ptr, ptr, ptr, ptr, ptr, ptr, ptr, ptr, ptr, ptr, ptr, ptr, ptr, ptr, ptr, ptr, ptr, ptr, ptr, ptr, ptr, ptr, ptr, ptr, ptr, ptr, ptr, ptr, ptr, ptr, ptr, ptr, ptr, ptr, ptr, ptr, ptr, ptr, ptr, ptr, ptr, ptr, ptr, ptr, ptr, ptr, ptr, ptr, ptr, ptr, ptr, ptr, ptr, ptr, ptr, ptr, ptr, ptr, ptr, ptr, ptr, ptr, ptr, ptr, ptr, ptr, ptr, ptr, ptr, ptr, ptr, ptr, ptr, ptr, ptr, ptr, ptr, ptr, ptr, ptr, ptr, ptr, ptr, ptr, ptr, ptr, ptr, ptr, ptr, ptr, ptr, ptr, ptr, ptr, ptr, ptr, ptr, ptr, ptr, ptr, ptr, ptr, ptr, ptr, ptr, ptr, ptr, ptr, ptr, ptr, ptr, ptr, ptr, ptr, ptr, ptr, ptr, ptr, ptr, ptr, ptr, ptr, ptr, ptr, ptr, ptr, ptr, ptr, ptr, ptr, ptr, ptr, ptr, ptr, ptr, ptr, ptr, ptr, ptr, ptr, ptr, ptr, ptr, ptr, ptr, ptr, ptr, ptr, ptr, ptr, ptr, ptr, ptr, ptr, ptr, ptr, ptr, ptr, ptr, ptr, ptr, ptr, ptr, ptr, ptr, ptr, ptr, ptr, ptr, ptr, ptr, ptr, ptr, ptr, ptr, ptr, ptr, ptr, ptr, ptr, ptr, ptr, ptr, ptr, ptr, ptr, ptr, ptr, ptr, ptr, ptr, ptr, ptr, ptr, ptr, ptr, ptr, ptr, ptr, ptr, ptr, ptr, ptr, ptr, ptr, ptr, ptr, ptr, ptr, ptr, ptr, ptr, ptr, ptr, ptr, ptr, ptr, ptr, ptr, ptr, ptr, ptr, ptr, ptr, ptr, ptr, ptr, ptr, ptr, ptr, ptr, ptr, ptr, ptr, ptr, ptr, ptr, ptr, ptr, ptr, ptr, ptr, ptr, ptr, ptr, ptr, ptr, ptr, ptr, ptr, ptr, ptr, ptr, ptr, ptr, ptr, ptr, ptr, ptr, ptr, ptr, ptr, ptr, ptr, ptr, ptr, ptr, ptr, ptr, ptr, ptr, ptr, ptr, ptr, ptr, ptr, ptr, ptr, ptr, ptr, ptr, ptr, ptr, ptr, ptr, ptr, ptr, ptr, ptr, ptr, ptr, ptr, ptr, ptr, ptr, ptr, ptr, ptr, ptr, ptr, ptr, ptr, ptr, ptr, ptr, ptr, ptr, ptr, ptr, ptr, ptr, ptr, ptr, ptr, ptr, ptr, ptr, ptr, ptr, ptr, ptr, ptr, ptr, ptr, ptr, ptr, ptr, ptr, ptr, ptr, ptr, ptr, ptr, ptr, ptr, ptr, ptr, ptr, ptr, ptr, ptr, ptr, ptr, ptr, ptr, ptr, ptr, ptr, ptr, ptr, ptr, ptr, ptr, ptr, ptr, ptr, ptr, ptr, ptr, ptr, ptr, ptr, ptr, ptr, ptr, ptr, ptr, ptr, ptr, ptr, ptr, ptr, ptr, ptr, ptr, ptr, ptr, ptr, ptr, ptr, ptr, ptr, ptr, ptr, ptr, ptr, ptr, ptr, ptr, ptr, ptr, ptr, ptr, ptr, ptr, ptr, ptr, ptr, ptr, ptr, ptr, ptr, ptr, ptr, ptr, ptr, ptr, ptr, ptr, ptr, ptr, ptr, ptr, ptr, ptr, ptr, ptr, ptr, ptr, ptr, ptr, ptr, ptr, ptr, ptr, ptr, ptr, ptr, ptr, ptr, ptr, ptr, ptr, ptr, ptr, ptr, ptr, ptr, ptr, ptr, ptr, ptr, ptr, ptr, ptr, ptr, ptr, ptr, ptr, ptr, ptr, ptr, ptr, ptr, ptr, ptr, ptr, ptr, ptr, ptr, ptr, ptr, ptr, ptr, ptr, ptr, ptr, ptr, ptr, ptr, ptr, ptr, ptr, ptr, ptr, ptr, ptr, ptr, ptr, ptr, ptr, ptr, ptr, ptr, ptr, ptr, ptr, ptr, ptr, ptr, ptr, ptr, ptr, ptr, ptr, ptr, ptr, ptr, ptr, ptr, ptr, ptr, ptr, ptr, ptr, ptr, ptr, ptr, ptr, ptr, ptr, ptr, ptr, ptr, ptr, ptr, ptr, ptr, ptr, ptr, ptr, ptr, ptr, ptr, ptr, ptr, ptr, ptr, ptr, ptr, ptr, ptr, ptr, ptr, ptr, ptr, ptr, ptr, ptr, ptr, ptr, ptr, ptr, ptr, ptr, ptr, ptr, ptr, ptr, ptr, ptr, ptr, ptr, ptr, ptr, ptr, ptr, ptr, ptr, ptr, ptr, ptr, ptr, ptr, ptr, ptr, ptr, ptr, ptr, ptr, ptr, ptr, ptr, ptr, ptr, ptr, ptr, ptr, ptr, ptr, ptr, ptr, ptr, ptr, ptr, ptr, ptr, ptr, ptr, ptr, ptr, ptr, ptr, ptr, ptr, ptr, ptr, ptr, ptr, ptr, ptr, ptr, ptr, ptr, ptr, ptr, ptr, ptr, ptr, ptr, ptr, ptr, ptr, ptr, ptr, ptr, ptr, ptr, ptr, ptr, ptr, ptr, ptr, ptr, ptr, ptr, ptr, ptr, ptr, ptr }
%struct.SqliteDb = type { ptr, ptr, ptr, ptr, ptr, ptr, ptr, ptr, ptr, ptr, i32, ptr, ptr, ptr, ptr, ptr, ptr, ptr, ptr, i32, ptr, ptr, ptr, i32, i32, ptr, i32, i32, i32, i32, i32, i32, i32 }
%struct.Tcl_Obj = type { i32, ptr, i32, ptr, %union.anon }
%union.anon = type { %struct.anon }
%struct.anon = type { ptr, ptr }

@tclStubsPtr = external global ptr, align 8

; Function Attrs: nounwind uwtable
define internal void @tclCollateNeeded(ptr noundef %0, ptr noundef %1, i32 noundef %2, ptr noundef %3) #0 {
  %5 = alloca ptr, align 8
  %6 = alloca ptr, align 8
  %7 = alloca i32, align 4
  %8 = alloca ptr, align 8
  %9 = alloca ptr, align 8
  %10 = alloca ptr, align 8
  %11 = alloca ptr, align 8
  store ptr %0, ptr %5, align 8, !tbaa !15
  store ptr %1, ptr %6, align 8, !tbaa !53
  store i32 %2, ptr %7, align 4, !tbaa !8
  store ptr %3, ptr %8, align 8, !tbaa !18
  call void @llvm.lifetime.start.p0(i64 8, ptr %9) #10
  %12 = load ptr, ptr %5, align 8, !tbaa !15
  store ptr %12, ptr %9, align 8, !tbaa !30
  call void @llvm.lifetime.start.p0(i64 8, ptr %10) #10
  %13 = load ptr, ptr @tclStubsPtr, align 8, !tbaa !10
  %14 = getelementptr inbounds nuw %struct.TclStubs, ptr %13, i32 0, i32 31
  %15 = load ptr, ptr %14, align 8, !tbaa !74
  %16 = load ptr, ptr %9, align 8, !tbaa !30
  %17 = getelementptr inbounds nuw %struct.SqliteDb, ptr %16, i32 0, i32 20
  %18 = load ptr, ptr %17, align 8, !tbaa !69
  %19 = call ptr %15(ptr noundef %18)
  store ptr %19, ptr %10, align 8, !tbaa !21
  %20 = load ptr, ptr %10, align 8, !tbaa !21
  %21 = getelementptr inbounds nuw %struct.Tcl_Obj, ptr %20, i32 0, i32 0
  %22 = load i32, ptr %21, align 8, !tbaa !70
  %23 = add nsw i32 %22, 1
  store i32 %23, ptr %21, align 8, !tbaa !70
  %24 = load ptr, ptr @tclStubsPtr, align 8, !tbaa !10
  %25 = getelementptr inbounds nuw %struct.TclStubs, ptr %24, i32 0, i32 46
  %26 = load ptr, ptr %25, align 8, !tbaa !80
  %27 = load ptr, ptr %10, align 8, !tbaa !21
  %28 = load ptr, ptr @tclStubsPtr, align 8, !tbaa !10
  %29 = getelementptr inbounds nuw %struct.TclStubs, ptr %28, i32 0, i32 58
  %30 = load ptr, ptr %29, align 8, !tbaa !81
  %31 = load ptr, ptr %8, align 8, !tbaa !18
  %32 = call ptr %30(ptr noundef %31, i32 noundef -1)
  %33 = call i32 %26(ptr noundef null, ptr noundef %27, ptr noundef %32)
  %34 = load ptr, ptr @tclStubsPtr, align 8, !tbaa !10
  %35 = getelementptr inbounds nuw %struct.TclStubs, ptr %34, i32 0, i32 295
  %36 = load ptr, ptr %35, align 8, !tbaa !133
  %37 = load ptr, ptr %9, align 8, !tbaa !30
  %38 = getelementptr inbounds nuw %struct.SqliteDb, ptr %37, i32 0, i32 1
  %39 = load ptr, ptr %38, align 8, !tbaa !45
  %40 = load ptr, ptr %10, align 8, !tbaa !21
  %41 = call i32 %36(ptr noundef %39, ptr noundef %40, i32 noundef 0)
  br label %42

42:                                               ; preds = %4
  call void @llvm.lifetime.start.p0(i64 8, ptr %11) #10
  %43 = load ptr, ptr %10, align 8, !tbaa !21
  store ptr %43, ptr %11, align 8, !tbaa !21
  %44 = load ptr, ptr %11, align 8, !tbaa !21
  %45 = getelementptr inbounds nuw %struct.Tcl_Obj, ptr %44, i32 0, i32 0
  %46 = load i32, ptr %45, align 8, !tbaa !70
  %47 = add nsw i32 %46, -1
  store i32 %47, ptr %45, align 8, !tbaa !70
  %48 = icmp sle i32 %46, 1
  br i1 %48, label %49, label %54

49:                                               ; preds = %42
  %50 = load ptr, ptr @tclStubsPtr, align 8, !tbaa !10
  %51 = getelementptr inbounds nuw %struct.TclStubs, ptr %50, i32 0, i32 32
  %52 = load ptr, ptr %51, align 8, !tbaa !73
  %53 = load ptr, ptr %11, align 8, !tbaa !21
  call void %52(ptr noundef %53)
  br label %54

54:                                               ; preds = %49, %42
  call void @llvm.lifetime.end.p0(i64 8, ptr %11) #10
  br label %55

55:                                               ; preds = %54
  br label %56

56:                                               ; preds = %55
  call void @llvm.lifetime.end.p0(i64 8, ptr %10) #10
  call void @llvm.lifetime.end.p0(i64 8, ptr %9) #10
  ret void
}