; Function Attrs: nounwind uwtable
define internal void @tclCollateNeeded(ptr noundef readonly captures(none) %0, ptr readnone captures(none) %1, i32 %2, ptr noundef %3) #0 {
  %5 = load ptr, ptr @tclStubsPtr, align 8, !tbaa !3
  %6 = getelementptr inbounds nuw i8, ptr %5, i64 248
  %7 = load ptr, ptr %6, align 8, !tbaa !65
  %8 = getelementptr inbounds nuw i8, ptr %0, i64 160
  %9 = load ptr, ptr %8, align 8, !tbaa !60
  %10 = tail call ptr %7(ptr noundef %9) #14
  %11 = load i32, ptr %10, align 8, !tbaa !61
  %12 = add nsw i32 %11, 1
  store i32 %12, ptr %10, align 8, !tbaa !61
  %13 = load ptr, ptr @tclStubsPtr, align 8, !tbaa !3
  %14 = getelementptr inbounds nuw i8, ptr %13, i64 368
  %15 = load ptr, ptr %14, align 8, !tbaa !71
  %16 = getelementptr inbounds nuw i8, ptr %13, i64 464
  %17 = load ptr, ptr %16, align 8, !tbaa !72
  %18 = tail call ptr %17(ptr noundef %3, i32 noundef -1) #14
  %19 = tail call i32 %15(ptr noundef null, ptr noundef nonnull %10, ptr noundef %18) #14
  %20 = load ptr, ptr @tclStubsPtr, align 8, !tbaa !3
  %21 = getelementptr inbounds nuw i8, ptr %20, i64 2360
  %22 = load ptr, ptr %21, align 8, !tbaa !121
  %23 = getelementptr inbounds nuw i8, ptr %0, i64 8
  %24 = load ptr, ptr %23, align 8, !tbaa !39
  %25 = tail call i32 %22(ptr noundef %24, ptr noundef nonnull %10, i32 noundef 0) #14
  %26 = load i32, ptr %10, align 8, !tbaa !61
  %27 = add nsw i32 %26, -1
  store i32 %27, ptr %10, align 8, !tbaa !61
  %28 = icmp slt i32 %26, 2
  br i1 %28, label %29, label %33

29:                                               ; preds = %4
  %30 = load ptr, ptr @tclStubsPtr, align 8, !tbaa !3
  %31 = getelementptr inbounds nuw i8, ptr %30, i64 256
  %32 = load ptr, ptr %31, align 8, !tbaa !64
  tail call void %32(ptr noundef nonnull %10) #14
  br label %33

33:                                               ; preds = %29, %4
  ret void
}